target datalayout = "e-m:e-p270:32:32-p271:32:32-p272:64:64-i64:64-i128:128-f80:128-n8:16:32:64-S128"
target triple = "x86_64-pc-linux-gnu"

%struct.xcgroup_ns_t = type { ptr, ptr, ptr, ptr }
%struct.cgroup_conf_t = type { ptr, ptr, i8, i8, float, float, i64, i8, float, float, i64, i8, ptr, i8, i8, i8, i8, i64 }
%struct.xcgroup_t = type { ptr, ptr, ptr, i32, i32, i32 }

@int_cg_ns = internal global %struct.xcgroup_ns_t zeroinitializer, align 8
@slurm_cgroup_conf = external global %struct.cgroup_conf_t, align 8
@int_cg = internal global [9 x %struct.xcgroup_t] zeroinitializer, align 16
@.str.96 = private unnamed_addr constant [20 x i8] c"%s/memory.oom.group\00", align 1
@.str.97 = private unnamed_addr constant [15 x i8] c"%s/memory.peak\00", align 1
@.str.98 = private unnamed_addr constant [19 x i8] c"%s/memory.swap.max\00", align 1
@.str.99 = private unnamed_addr constant [15 x i8] c"%s/cgroup.type\00", align 1
@.str.100 = private unnamed_addr constant [15 x i8] c"%s/cgroup.kill\00", align 1

; Function Attrs: nounwind uwtable
define dso_local zeroext i1 @cgroup_p_has_feature(i32 noundef %0) #0 {
  %2 = alloca i1, align 1
  %3 = alloca i32, align 4
  %4 = alloca [4096 x i8], align 16
  %5 = alloca i32, align 4
  store i32 %0, ptr %3, align 4
  call void @llvm.lifetime.start.p0(i64 4096, ptr %4) #10
  %6 = load i32, ptr %3, align 4
  switch i32 %6, label %82 [
    i32 1, label %7
    i32 2, label %24
    i32 3, label %41
    i32 0, label %58
    i32 4, label %70
  ]

7:                                                ; preds = %1
  %8 = load ptr, ptr @int_cg_ns, align 8
  %9 = call i32 @slurm_bit_test(ptr noundef %8, i64 noundef 2)
  %10 = icmp ne i32 %9, 0
  br i1 %10, label %12, label %11

11:                                               ; preds = %7
  br label %83

12:                                               ; preds = %7
  %13 = getelementptr inbounds [4096 x i8], ptr %4, i64 0, i64 0
  %14 = load ptr, ptr getelementptr inbounds nuw (%struct.xcgroup_t, ptr @int_cg, i32 0, i32 2), align 16
  %15 = call i32 (ptr, i64, ptr, ...) @snprintf(ptr noundef %13, i64 noundef 4096, ptr noundef @.str.96, ptr noundef %14) #10
  %16 = icmp sge i32 %15, 4096
  br i1 %16, label %17, label %18

17:                                               ; preds = %12
  br label %83

18:                                               ; preds = %12
  %19 = getelementptr inbounds [4096 x i8], ptr %4, i64 0, i64 0
  %20 = call i32 @access(ptr noundef %19, i32 noundef 0) #10
  %21 = icmp ne i32 %20, 0
  br i1 %21, label %23, label %22

22:                                               ; preds = %18
  store i1 true, ptr %2, align 1
  store i32 1, ptr %5, align 4
  br label %84

23:                                               ; preds = %18
  br label %83

24:                                               ; preds = %1
  %25 = load ptr, ptr @int_cg_ns, align 8
  %26 = call i32 @slurm_bit_test(ptr noundef %25, i64 noundef 2)
  %27 = icmp ne i32 %26, 0
  br i1 %27, label %29, label %28

28:                                               ; preds = %24
  br label %83

29:                                               ; preds = %24
  %30 = getelementptr inbounds [4096 x i8], ptr %4, i64 0, i64 0
  %31 = load ptr, ptr getelementptr inbounds nuw (%struct.xcgroup_t, ptr @int_cg, i32 0, i32 2), align 16
  %32 = call i32 (ptr, i64, ptr, ...) @snprintf(ptr noundef %30, i64 noundef 4096, ptr noundef @.str.97, ptr noundef %31) #10
  %33 = icmp sge i32 %32, 4096
  br i1 %33, label %34, label %35

34:                                               ; preds = %29
  br label %83

35:                                               ; preds = %29
  %36 = getelementptr inbounds [4096 x i8], ptr %4, i64 0, i64 0
  %37 = call i32 @access(ptr noundef %36, i32 noundef 0) #10
  %38 = icmp ne i32 %37, 0
  br i1 %38, label %40, label %39

39:                                               ; preds = %35
  store i1 true, ptr %2, align 1
  store i32 1, ptr %5, align 4
  br label %84

40:                                               ; preds = %35
  br label %83

41:                                               ; preds = %1
  %42 = load ptr, ptr @int_cg_ns, align 8
  %43 = call i32 @slurm_bit_test(ptr noundef %42, i64 noundef 2)
  %44 = icmp ne i32 %43, 0
  br i1 %44, label %46, label %45

45:                                               ; preds = %41
  br label %83

46:                                               ; preds = %41
  %47 = getelementptr inbounds [4096 x i8], ptr %4, i64 0, i64 0
  %48 = load ptr, ptr getelementptr inbounds nuw (%struct.xcgroup_t, ptr @int_cg, i32 0, i32 2), align 16
  %49 = call i32 (ptr, i64, ptr, ...) @snprintf(ptr noundef %47, i64 noundef 4096, ptr noundef @.str.98, ptr noundef %48) #10
  %50 = icmp sge i32 %49, 4096
  br i1 %50, label %51, label %52

51:                                               ; preds = %46
  br label %83

52:                                               ; preds = %46
  %53 = getelementptr inbounds [4096 x i8], ptr %4, i64 0, i64 0
  %54 = call i32 @access(ptr noundef %53, i32 noundef 0) #10
  %55 = icmp ne i32 %54, 0
  br i1 %55, label %57, label %56

56:                                               ; preds = %52
  store i1 true, ptr %2, align 1
  store i32 1, ptr %5, align 4
  br label %84

57:                                               ; preds = %52
  br label %83

58:                                               ; preds = %1
  %59 = getelementptr inbounds [4096 x i8], ptr %4, i64 0, i64 0
  %60 = load ptr, ptr @slurm_cgroup_conf, align 8
  %61 = call i32 (ptr, i64, ptr, ...) @snprintf(ptr noundef %59, i64 noundef 4096, ptr noundef @.str.99, ptr noundef %60) #10
  %62 = icmp sge i32 %61, 4096
  br i1 %62, label %63, label %64

63:                                               ; preds = %58
  br label %83

64:                                               ; preds = %58
  %65 = getelementptr inbounds [4096 x i8], ptr %4, i64 0, i64 0
  %66 = call i32 @access(ptr noundef %65, i32 noundef 0) #10
  %67 = icmp ne i32 %66, 0
  br i1 %67, label %69, label %68

68:                                               ; preds = %64
  store i1 true, ptr %2, align 1
  store i32 1, ptr %5, align 4
  br label %84

69:                                               ; preds = %64
  br label %83

70:                                               ; preds = %1
  %71 = getelementptr inbounds [4096 x i8], ptr %4, i64 0, i64 0
  %72 = load ptr, ptr getelementptr inbounds nuw (%struct.xcgroup_t, ptr @int_cg, i32 0, i32 2), align 16
  %73 = call i32 (ptr, i64, ptr, ...) @snprintf(ptr noundef %71, i64 noundef 4096, ptr noundef @.str.100, ptr noundef %72) #10
  %74 = icmp sge i32 %73, 4096
  br i1 %74, label %75, label %76

75:                                               ; preds = %70
  br label %83

76:                                               ; preds = %70
  %77 = getelementptr inbounds [4096 x i8], ptr %4, i64 0, i64 0
  %78 = call i32 @access(ptr noundef %77, i32 noundef 0) #10
  %79 = icmp ne i32 %78, 0
  br i1 %79, label %81, label %80

80:                                               ; preds = %76
  store i1 true, ptr %2, align 1
  store i32 1, ptr %5, align 4
  br label %84

81:                                               ; preds = %76
  br label %83

82:                                               ; preds = %1
  br label %83

83:                                               ; preds = %82, %81, %75, %69, %63, %57, %51, %45, %40, %34, %28, %23, %17, %11
  store i1 false, ptr %2, align 1
  store i32 1, ptr %5, align 4
  br label %84

84:                                               ; preds = %83, %80, %68, %56, %39, %22
  call void @llvm.lifetime.end.p0(i64 4096, ptr %4) #10
  %85 = load i1, ptr %2, align 1
  ret i1 %85
}