; Function Attrs: nounwind uwtable
define dso_local noundef zeroext i1 @cgroup_p_has_feature(i32 noundef %0) local_unnamed_addr #0 {
  %2 = alloca [4096 x i8], align 16
  call void @llvm.lifetime.start.p0(i64 4096, ptr nonnull %2) #17
  switch i32 %0, label %42 [
    i32 1, label %3
    i32 2, label %12
    i32 3, label %21
    i32 0, label %30
    i32 4, label %36
  ]

3:                                                ; preds = %1
  %4 = load ptr, ptr @int_cg_ns, align 8
  %5 = tail call i32 @slurm_bit_test(ptr noundef %4, i64 noundef 2) #17
  %.not6 = icmp eq i32 %5, 0
  br i1 %.not6, label %42, label %6

6:                                                ; preds = %3
  %7 = load ptr, ptr getelementptr inbounds nuw (i8, ptr @int_cg, i64 16), align 16
  %8 = call i32 (ptr, i64, ptr, ...) @snprintf(ptr noundef nonnull dereferenceable(1) %2, i64 noundef 4096, ptr noundef nonnull @.str.96, ptr noundef %7) #17
  %9 = icmp sgt i32 %8, 4095
  br i1 %9, label %42, label %10

10:                                               ; preds = %6
  %11 = call i32 @access(ptr noundef nonnull %2, i32 noundef 0) #17
  %.not7 = icmp eq i32 %11, 0
  br i1 %.not7, label %43, label %42

12:                                               ; preds = %1
  %13 = load ptr, ptr @int_cg_ns, align 8
  %14 = tail call i32 @slurm_bit_test(ptr noundef %13, i64 noundef 2) #17
  %.not4 = icmp eq i32 %14, 0
  br i1 %.not4, label %42, label %15

15:                                               ; preds = %12
  %16 = load ptr, ptr getelementptr inbounds nuw (i8, ptr @int_cg, i64 16), align 16
  %17 = call i32 (ptr, i64, ptr, ...) @snprintf(ptr noundef nonnull dereferenceable(1) %2, i64 noundef 4096, ptr noundef nonnull @.str.97, ptr noundef %16) #17
  %18 = icmp sgt i32 %17, 4095
  br i1 %18, label %42, label %19

19:                                               ; preds = %15
  %20 = call i32 @access(ptr noundef nonnull %2, i32 noundef 0) #17
  %.not5 = icmp eq i32 %20, 0
  br i1 %.not5, label %43, label %42

21:                                               ; preds = %1
  %22 = load ptr, ptr @int_cg_ns, align 8
  %23 = tail call i32 @slurm_bit_test(ptr noundef %22, i64 noundef 2) #17
  %.not2 = icmp eq i32 %23, 0
  br i1 %.not2, label %42, label %24

24:                                               ; preds = %21
  %25 = load ptr, ptr getelementptr inbounds nuw (i8, ptr @int_cg, i64 16), align 16
  %26 = call i32 (ptr, i64, ptr, ...) @snprintf(ptr noundef nonnull dereferenceable(1) %2, i64 noundef 4096, ptr noundef nonnull @.str.98, ptr noundef %25) #17
  %27 = icmp sgt i32 %26, 4095
  br i1 %27, label %42, label %28

28:                                               ; preds = %24
  %29 = call i32 @access(ptr noundef nonnull %2, i32 noundef 0) #17
  %.not3 = icmp eq i32 %29, 0
  br i1 %.not3, label %43, label %42

30:                                               ; preds = %1
  %31 = load ptr, ptr @slurm_cgroup_conf, align 8
  %32 = call i32 (ptr, i64, ptr, ...) @snprintf(ptr noundef nonnull dereferenceable(1) %2, i64 noundef 4096, ptr noundef nonnull @.str.99, ptr noundef %31) #17
  %33 = icmp sgt i32 %32, 4095
  br i1 %33, label %42, label %34

34:                                               ; preds = %30
  %35 = call i32 @access(ptr noundef nonnull %2, i32 noundef 0) #17
  %.not1 = icmp eq i32 %35, 0
  br i1 %.not1, label %43, label %42

36:                                               ; preds = %1
  %37 = load ptr, ptr getelementptr inbounds nuw (i8, ptr @int_cg, i64 16), align 16
  %38 = call i32 (ptr, i64, ptr, ...) @snprintf(ptr noundef nonnull dereferenceable(1) %2, i64 noundef 4096, ptr noundef nonnull @.str.100, ptr noundef %37) #17
  %39 = icmp sgt i32 %38, 4095
  br i1 %39, label %42, label %40

40:                                               ; preds = %36
  %41 = call i32 @access(ptr noundef nonnull %2, i32 noundef 0) #17
  %.not = icmp eq i32 %41, 0
  br i1 %.not, label %43, label %42

42:                                               ; preds = %1, %40, %36, %34, %30, %28, %24, %21, %19, %15, %12, %10, %6, %3
  br label %43

43:                                               ; preds = %40, %34, %28, %19, %10, %42
  %.0 = phi i1 [ false, %42 ], [ true, %10 ], [ true, %19 ], [ true, %28 ], [ true, %34 ], [ true, %40 ]
  call void @llvm.lifetime.end.p0(i64 4096, ptr nonnull %2) #17
  ret i1 %.0
}